target datalayout = "e-m:e-p270:32:32-p271:32:32-p272:64:64-i64:64-i128:128-f80:128-n8:16:32:64-S128"
target triple = "x86_64-pc-linux-gnu"

%struct.Mini_Aig_t_ = type { i32, i32, i32, ptr }

; Function Attrs: nounwind uwtable
define internal void @Mini_AigGrow(ptr noundef %0, i32 noundef %1) #0 {
  %3 = alloca ptr, align 8
  %4 = alloca i32, align 4
  store ptr %0, ptr %3, align 8, !tbaa !10
  store i32 %1, ptr %4, align 4, !tbaa !12
  %5 = load ptr, ptr %3, align 8, !tbaa !10
  %6 = getelementptr inbounds nuw %struct.Mini_Aig_t_, ptr %5, i32 0, i32 0
  %7 = load i32, ptr %6, align 8, !tbaa !80
  %8 = load i32, ptr %4, align 4, !tbaa !12
  %9 = icmp sge i32 %7, %8
  br i1 %9, label %10, label %11

10:                                               ; preds = %2
  br label %36

11:                                               ; preds = %2
  %12 = load ptr, ptr %3, align 8, !tbaa !10
  %13 = getelementptr inbounds nuw %struct.Mini_Aig_t_, ptr %12, i32 0, i32 3
  %14 = load ptr, ptr %13, align 8, !tbaa !14
  %15 = icmp ne ptr %14, null
  br i1 %15, label %16, label %24

16:                                               ; preds = %11
  %17 = load ptr, ptr %3, align 8, !tbaa !10
  %18 = getelementptr inbounds nuw %struct.Mini_Aig_t_, ptr %17, i32 0, i32 3
  %19 = load ptr, ptr %18, align 8, !tbaa !14
  %20 = load i32, ptr %4, align 4, !tbaa !12
  %21 = sext i32 %20 to i64
  %22 = mul i64 4, %21
  %23 = call ptr @realloc(ptr noundef %19, i64 noundef %22) #17
  br label %29

24:                                               ; preds = %11
  %25 = load i32, ptr %4, align 4, !tbaa !12
  %26 = sext i32 %25 to i64
  %27 = mul i64 4, %26
  %28 = call noalias ptr @malloc(i64 noundef %27) #15
  br label %29

29:                                               ; preds = %24, %16
  %30 = phi ptr [ %23, %16 ], [ %28, %24 ]
  %31 = load ptr, ptr %3, align 8, !tbaa !10
  %32 = getelementptr inbounds nuw %struct.Mini_Aig_t_, ptr %31, i32 0, i32 3
  store ptr %30, ptr %32, align 8, !tbaa !14
  %33 = load i32, ptr %4, align 4, !tbaa !12
  %34 = load ptr, ptr %3, align 8, !tbaa !10
  %35 = getelementptr inbounds nuw %struct.Mini_Aig_t_, ptr %34, i32 0, i32 0
  store i32 %33, ptr %35, align 8, !tbaa !80
  br label %36

36:                                               ; preds = %29, %10
  ret void
}

; Function Attrs: nounwind uwtable
define internal void @Mini_AigPush(ptr noundef %0, i32 noundef %1, i32 noundef %2) #0 {
  %4 = alloca ptr, align 8
  %5 = alloca i32, align 4
  %6 = alloca i32, align 4
  store ptr %0, ptr %4, align 8, !tbaa !10
  store i32 %1, ptr %5, align 4, !tbaa !12
  store i32 %2, ptr %6, align 4, !tbaa !12
  %7 = load ptr, ptr %4, align 8, !tbaa !10
  %8 = getelementptr inbounds nuw %struct.Mini_Aig_t_, ptr %7, i32 0, i32 1
  %9 = load i32, ptr %8, align 4, !tbaa !41
  %10 = add nsw i32 %9, 2
  %11 = load ptr, ptr %4, align 8, !tbaa !10
  %12 = getelementptr inbounds nuw %struct.Mini_Aig_t_, ptr %11, i32 0, i32 0
  %13 = load i32, ptr %12, align 8, !tbaa !80
  %14 = icmp sgt i32 %10, %13
  br i1 %14, label %15, label %29

15:                                               ; preds = %3
  %16 = load ptr, ptr %4, align 8, !tbaa !10
  %17 = getelementptr inbounds nuw %struct.Mini_Aig_t_, ptr %16, i32 0, i32 0
  %18 = load i32, ptr %17, align 8, !tbaa !80
  %19 = icmp slt i32 %18, 255
  br i1 %19, label %20, label %22

20:                                               ; preds = %15
  %21 = load ptr, ptr %4, align 8, !tbaa !10
  call void @Mini_AigGrow(ptr noundef %21, i32 noundef 255)
  br label %28

22:                                               ; preds = %15
  %23 = load ptr, ptr %4, align 8, !tbaa !10
  %24 = load ptr, ptr %4, align 8, !tbaa !10
  %25 = getelementptr inbounds nuw %struct.Mini_Aig_t_, ptr %24, i32 0, i32 0
  %26 = load i32, ptr %25, align 8, !tbaa !80
  %27 = mul nsw i32 2, %26
  call void @Mini_AigGrow(ptr noundef %23, i32 noundef %27)
  br label %28

28:                                               ; preds = %22, %20
  br label %29

29:                                               ; preds = %28, %3
  %30 = load i32, ptr %5, align 4, !tbaa !12
  %31 = load ptr, ptr %4, align 8, !tbaa !10
  %32 = getelementptr inbounds nuw %struct.Mini_Aig_t_, ptr %31, i32 0, i32 3
  %33 = load ptr, ptr %32, align 8, !tbaa !14
  %34 = load ptr, ptr %4, align 8, !tbaa !10
  %35 = getelementptr inbounds nuw %struct.Mini_Aig_t_, ptr %34, i32 0, i32 1
  %36 = load i32, ptr %35, align 4, !tbaa !41
  %37 = add nsw i32 %36, 1
  store i32 %37, ptr %35, align 4, !tbaa !41
  %38 = sext i32 %36 to i64
  %39 = getelementptr inbounds i32, ptr %33, i64 %38
  store i32 %30, ptr %39, align 4, !tbaa !12
  %40 = load i32, ptr %6, align 4, !tbaa !12
  %41 = load ptr, ptr %4, align 8, !tbaa !10
  %42 = getelementptr inbounds nuw %struct.Mini_Aig_t_, ptr %41, i32 0, i32 3
  %43 = load ptr, ptr %42, align 8, !tbaa !14
  %44 = load ptr, ptr %4, align 8, !tbaa !10
  %45 = getelementptr inbounds nuw %struct.Mini_Aig_t_, ptr %44, i32 0, i32 1
  %46 = load i32, ptr %45, align 4, !tbaa !41
  %47 = add nsw i32 %46, 1
  store i32 %47, ptr %45, align 4, !tbaa !41
  %48 = sext i32 %46 to i64
  %49 = getelementptr inbounds i32, ptr %43, i64 %48
  store i32 %40, ptr %49, align 4, !tbaa !12
  ret void
}

; Function Attrs: nounwind uwtable
define internal i32 @Mini_AigCreatePi(ptr noundef %0) #0 {
  %2 = alloca ptr, align 8
  %3 = alloca i32, align 4
  store ptr %0, ptr %2, align 8, !tbaa !10
  call void @llvm.lifetime.start.p0(i64 4, ptr %3) #13
  %4 = load ptr, ptr %2, align 8, !tbaa !10
  %5 = getelementptr inbounds nuw %struct.Mini_Aig_t_, ptr %4, i32 0, i32 1
  %6 = load i32, ptr %5, align 4, !tbaa !41
  store i32 %6, ptr %3, align 4, !tbaa !12
  %7 = load ptr, ptr %2, align 8, !tbaa !10
  call void @Mini_AigPush(ptr noundef %7, i32 noundef 2147483647, i32 noundef 2147483647)
  %8 = load i32, ptr %3, align 4, !tbaa !12
  call void @llvm.lifetime.end.p0(i64 4, ptr %3) #13
  ret i32 %8
}