; Function Attrs: mustprogress nounwind willreturn uwtable
define internal fastcc i32 @Mini_AigCreatePi(ptr noundef captures(none) %0) unnamed_addr #5 {
  %2 = getelementptr inbounds nuw i8, ptr %0, i64 4
  %3 = load i32, ptr %2, align 4, !tbaa !13
  %4 = add nsw i32 %3, 2
  %5 = load i32, ptr %0, align 8, !tbaa !44
  %6 = icmp sgt i32 %4, %5
  br i1 %6, label %7, label %.Mini_AigGrow.exit13_crit_edge.i

.Mini_AigGrow.exit13_crit_edge.i:                 ; preds = %1
  %.phi.trans.insert.i = getelementptr inbounds nuw i8, ptr %0, i64 16
  %.pre.i = load ptr, ptr %.phi.trans.insert.i, align 8, !tbaa !3
  br label %Mini_AigPush.exit

7:                                                ; preds = %1
  %8 = icmp slt i32 %5, 255
  br i1 %8, label %9, label %17

9:                                                ; preds = %7
  %10 = getelementptr inbounds nuw i8, ptr %0, i64 16
  %11 = load ptr, ptr %10, align 8, !tbaa !3
  %.not9.i.i = icmp eq ptr %11, null
  br i1 %.not9.i.i, label %14, label %12

12:                                               ; preds = %9
  %13 = tail call dereferenceable_or_null(1020) ptr @realloc(ptr noundef nonnull %11, i64 noundef 1020) #27
  br label %Mini_AigGrow.exit.i

14:                                               ; preds = %9
  %15 = tail call noalias dereferenceable_or_null(1020) ptr @malloc(i64 noundef 1020) #26
  br label %Mini_AigGrow.exit.i

Mini_AigGrow.exit.i:                              ; preds = %14, %12
  %16 = phi ptr [ %13, %12 ], [ %15, %14 ]
  store ptr %16, ptr %10, align 8, !tbaa !3
  store i32 255, ptr %0, align 8, !tbaa !44
  br label %Mini_AigPush.exit

17:                                               ; preds = %7
  %18 = shl nuw nsw i32 %5, 1
  %19 = getelementptr inbounds nuw i8, ptr %0, i64 16
  %20 = load ptr, ptr %19, align 8, !tbaa !3
  %.not9.i12.i = icmp eq ptr %20, null
  %21 = zext nneg i32 %18 to i64
  %22 = shl nuw nsw i64 %21, 2
  br i1 %.not9.i12.i, label %25, label %23

23:                                               ; preds = %17
  %24 = tail call ptr @realloc(ptr noundef nonnull %20, i64 noundef %22) #27
  br label %27

25:                                               ; preds = %17
  %26 = tail call noalias ptr @malloc(i64 noundef %22) #26
  br label %27

27:                                               ; preds = %25, %23
  %28 = phi ptr [ %24, %23 ], [ %26, %25 ]
  store ptr %28, ptr %19, align 8, !tbaa !3
  store i32 %18, ptr %0, align 8, !tbaa !44
  br label %Mini_AigPush.exit

Mini_AigPush.exit:                                ; preds = %.Mini_AigGrow.exit13_crit_edge.i, %Mini_AigGrow.exit.i, %27
  %29 = phi ptr [ %.pre.i, %.Mini_AigGrow.exit13_crit_edge.i ], [ %28, %27 ], [ %16, %Mini_AigGrow.exit.i ]
  %30 = load i32, ptr %2, align 4, !tbaa !13
  %31 = add nsw i32 %30, 1
  store i32 %31, ptr %2, align 4, !tbaa !13
  %32 = sext i32 %30 to i64
  %33 = getelementptr inbounds i32, ptr %29, i64 %32
  store i32 2147483647, ptr %33, align 4, !tbaa !10
  %34 = load i32, ptr %2, align 4, !tbaa !13
  %35 = add nsw i32 %34, 1
  store i32 %35, ptr %2, align 4, !tbaa !13
  %36 = sext i32 %34 to i64
  %37 = getelementptr inbounds i32, ptr %29, i64 %36
  store i32 2147483647, ptr %37, align 4, !tbaa !10
  ret i32 %3
}